Certificate:
    Data:
        Version: 3 (0x2)
        Serial Number: 22 (0x16)
    Signature Algorithm: ecdsa-with-SHA256
        Issuer: C=CN, ST=SH, L=SH, O=EL, OU=EL, CN=ECCA4
        Validity
            Not Before: Apr 20 02:59:42 2023 GMT
            Not After : Apr 19 02:59:42 2024 GMT
        Subject: C=CN, ST=SH, O=EL, CN=ECTestClient1
        Subject Public Key Info:
            Public Key Algorithm: id-ecPublicKey
                Public-Key: (256 bit)
                pub: 
                    04:67:0b:4d:d1:29:7a:f8:29:41:d8:38:b3:ad:60:
                    b5:d0:39:90:6c:4e:36:41:c3:0c:a6:62:2e:f9:c4:
                    fb:e3:0f:1c:77:7e:30:0f:4f:62:bd:88:ff:43:2d:
                    b7:a4:a4:9a:1a:ba:d3:2f:3a:d3:87:c2:cc:80:62:
                    76:7c:ff:32:39
                ASN1 OID: prime256v1
                NIST CURVE: P-256
        X509v3 extensions:
            X509v3 Authority Key Identifier: 
                DirName:/C=CN/ST=SH/L=SH/O=EL/OU=EL/CN=ECCA4
                serial:BC:64:D9:FE:6A:91:0E:C2

            X509v3 Basic Constraints: 
                CA:FALSE
            X509v3 Key Usage: 
                Digital Signature, Certificate Sign, CRL Sign
            X509v3 Extended Key Usage: 
                TLS Web Server Authentication, TLS Web Client Authentication, Code Signing, E-mail Protection, Time Stamping
            Netscape Comment: 
                longlonglonglonglonglonglonglonglonglonglonglonglonglonglonglonglonglonglonglonglonglonglonglonglonglonglonglonglonglonglonglonglonglonglonglonglonglonglonglonglonglonglonglonglonglonglonglonglonglonglonglonglonglonglonglonglonglonglonglonglonglonglonglonglonglonglonglonglonglonglonglonglonglonglonglonglonglonglonglonglonglonglonglonglonglonglonglonglonglonglonglonglonglonglonglonglonglonglonglonglonglonglonglonglonglonglonglonglonglonglonglonglonglonglonglonglonglonglonglonglonglonglonglonglonglonglonglonglonglonglonglonglonglonglonglonglonglonglonglonglonglonglonglonglonglonglonglonglonglonglonglonglonglonglonglonglonglonglonglonglonglonglonglonglonglonglonglonglonglonglonglonglonglonglonglonglonglonglonglonglonglonglonglonglonglonglonglonglonglonglonglonglonglonglonglonglonglonglonglonglonglonglonglonglonglonglonglonglonglonglonglonglonglonglonglonglonglonglonglonglonglonglonglonglonglonglonglonglonglonglonglonglonglonglonglonglonglonglonglonglonglonglonglonglonglonglonglonglonglonglonglonglonglonglonglonglonglonglonglonglonglonglonglonglonglonglonglonglonglonglonglonglonglonglonglonglonglonglonglonglonglonglonglonglonglonglonglonglonglonglonglonglonglonglonglonglonglonglonglonglonglonglonglonglonglonglonglonglonglonglonglonglonglonglonglonglonglonglonglonglonglonglonglonglonglonglonglonglonglonglonglonglonglonglonglonglonglonglonglonglonglonglonglonglonglonglonglonglonglonglonglonglonglonglonglonglonglonglonglonglonglonglonglonglonglonglonglonglonglonglonglonglonglonglonglonglonglonglonglonglonglonglonglongcomment
    Signature Algorithm: ecdsa-with-SHA256
         30:64:02:30:7c:6c:e7:69:a6:dc:a6:80:fd:24:c4:49:50:fa:
         67:a5:c3:83:40:7a:8b:42:8b:c5:98:95:ae:cb:0e:43:83:72:
         f6:c9:51:f1:71:5c:9c:ab:b1:63:93:fb:1b:eb:19:0d:02:30:
         0a:6b:15:18:0a:63:ae:9e:8e:2b:d4:59:a2:e6:1f:2c:c3:fc:
         4f:1f:8b:99:b1:0f:78:7c:bf:fd:e6:2f:5a:12:12:60:65:bf:
         f4:c7:fc:5f:d4:c3:bc:ae:d6:53:6a:6b
-----BEGIN CERTIFICATE-----
MIIIhDCCCAugAwIBAgIBFjAKBggqhkjOPQQDAjBRMQswCQYDVQQGEwJDTjELMAkG
A1UECAwCU0gxCzAJBgNVBAcMAlNIMQswCQYDVQQKDAJFTDELMAkGA1UECwwCRUwx
DjAMBgNVBAMMBUVDQ0E0MB4XDTIzMDQyMDAyNTk0MloXDTI0MDQxOTAyNTk0Mlow
PzELMAkGA1UEBhMCQ04xCzAJBgNVBAgMAlNIMQswCQYDVQQKDAJFTDEWMBQGA1UE
AwwNRUNUZXN0Q2xpZW50MTBZMBMGByqGSM49AgEGCCqGSM49AwEHA0IABGcLTdEp
evgpQdg4s61gtdA5kGxONkHDDKZiLvnE++MPHHd+MA9PYr2I/0Mtt6Skmhq60y86
04fCzIBidnz/MjmjggbkMIIG4DBrBgNVHSMEZDBioVWkUzBRMQswCQYDVQQGEwJD
TjELMAkGA1UECAwCU0gxCzAJBgNVBAcMAlNIMQswCQYDVQQKDAJFTDELMAkGA1UE
CwwCRUwxDjAMBgNVBAMMBUVDQ0E0ggkAvGTZ/mqRDsIwCQYDVR0TBAIwADALBgNV
HQ8EBAMCAYYwOwYDVR0lBDQwMgYIKwYBBQUHAwEGCCsGAQUFBwMCBggrBgEFBQcD
AwYIKwYBBQUHAwQGCCsGAQUFBwMIMIIGGgYJYIZIAYb4QgENBIIGCxaCBgdsb25n
bG9uZ2xvbmdsb25nbG9uZ2xvbmdsb25nbG9uZ2xvbmdsb25nbG9uZ2xvbmdsb25n
bG9uZ2xvbmdsb25nbG9uZ2xvbmdsb25nbG9uZ2xvbmdsb25nbG9uZ2xvbmdsb25n
bG9uZ2xvbmdsb25nbG9uZ2xvbmdsb25nbG9uZ2xvbmdsb25nbG9uZ2xvbmdsb25n
bG9uZ2xvbmdsb25nbG9uZ2xvbmdsb25nbG9uZ2xvbmdsb25nbG9uZ2xvbmdsb25n
bG9uZ2xvbmdsb25nbG9uZ2xvbmdsb25nbG9uZ2xvbmdsb25nbG9uZ2xvbmdsb25n
bG9uZ2xvbmdsb25nbG9uZ2xvbmdsb25nbG9uZ2xvbmdsb25nbG9uZ2xvbmdsb25n
bG9uZ2xvbmdsb25nbG9uZ2xvbmdsb25nbG9uZ2xvbmdsb25nbG9uZ2xvbmdsb25n
bG9uZ2xvbmdsb25nbG9uZ2xvbmdsb25nbG9uZ2xvbmdsb25nbG9uZ2xvbmdsb25n
bG9uZ2xvbmdsb25nbG9uZ2xvbmdsb25nbG9uZ2xvbmdsb25nbG9uZ2xvbmdsb25n
bG9uZ2xvbmdsb25nbG9uZ2xvbmdsb25nbG9uZ2xvbmdsb25nbG9uZ2xvbmdsb25n
bG9uZ2xvbmdsb25nbG9uZ2xvbmdsb25nbG9uZ2xvbmdsb25nbG9uZ2xvbmdsb25n
bG9uZ2xvbmdsb25nbG9uZ2xvbmdsb25nbG9uZ2xvbmdsb25nbG9uZ2xvbmdsb25n
bG9uZ2xvbmdsb25nbG9uZ2xvbmdsb25nbG9uZ2xvbmdsb25nbG9uZ2xvbmdsb25n
bG9uZ2xvbmdsb25nbG9uZ2xvbmdsb25nbG9uZ2xvbmdsb25nbG9uZ2xvbmdsb25n
bG9uZ2xvbmdsb25nbG9uZ2xvbmdsb25nbG9uZ2xvbmdsb25nbG9uZ2xvbmdsb25n
bG9uZ2xvbmdsb25nbG9uZ2xvbmdsb25nbG9uZ2xvbmdsb25nbG9uZ2xvbmdsb25n
bG9uZ2xvbmdsb25nbG9uZ2xvbmdsb25nbG9uZ2xvbmdsb25nbG9uZ2xvbmdsb25n
bG9uZ2xvbmdsb25nbG9uZ2xvbmdsb25nbG9uZ2xvbmdsb25nbG9uZ2xvbmdsb25n
bG9uZ2xvbmdsb25nbG9uZ2xvbmdsb25nbG9uZ2xvbmdsb25nbG9uZ2xvbmdsb25n
bG9uZ2xvbmdsb25nbG9uZ2xvbmdsb25nbG9uZ2xvbmdsb25nbG9uZ2xvbmdsb25n
bG9uZ2xvbmdsb25nbG9uZ2xvbmdsb25nbG9uZ2xvbmdsb25nbG9uZ2xvbmdsb25n
bG9uZ2xvbmdsb25nbG9uZ2xvbmdsb25nbG9uZ2xvbmdsb25nbG9uZ2xvbmdsb25n
bG9uZ2xvbmdsb25nbG9uZ2xvbmdsb25nbG9uZ2xvbmdsb25nbG9uZ2xvbmdsb25n
bG9uZ2xvbmdsb25nbG9uZ2xvbmdsb25nbG9uZ2xvbmdsb25nbG9uZ2xvbmdsb25n
bG9uZ2xvbmdsb25nbG9uZ2xvbmdsb25nbG9uZ2xvbmdsb25nbG9uZ2xvbmdsb25n
bG9uZ2xvbmdsb25nbG9uZ2xvbmdsb25nbG9uZ2xvbmdsb25nbG9uZ2xvbmdsb25n
bG9uZ2xvbmdsb25nbG9uZ2xvbmdsb25nbG9uZ2xvbmdsb25nbG9uZ2xvbmdsb25n
bG9uZ2xvbmdsb25nbG9uZ2xvbmdsb25nbG9uZ2xvbmdsb25nbG9uZ2xvbmdsb25n
bG9uZ2xvbmdsb25nbG9uZ2xvbmdsb25nbG9uZ2xvbmdsb25nbG9uZ2xvbmdsb25n
bG9uZ2xvbmdsb25nbG9uZ2xvbmdsb25nbG9uZ2xvbmdsb25nbG9uZ2xvbmdsb25n
bG9uZ2xvbmdsb25nbG9uZ2xvbmdsb25nbG9uZ2xvbmdsb25nbG9uZ2xvbmdsb25n
bG9uZ2xvbmdsb25nbG9uZ2xvbmdsb25nbG9uZ2xvbmdsb25nbG9uZ2xvbmdjb21t
ZW50MAoGCCqGSM49BAMCA2cAMGQCMHxs52mm3KaA/STESVD6Z6XDg0B6i0KLxZiV
rssOQ4Ny9slR8XFcnKuxY5P7G+sZDQIwCmsVGApjrp6OK9RZouYfLMP8Tx+LmbEP
eHy//eYvWhISYGW/9Mf8X9TDvK7WU2pr
-----END CERTIFICATE-----
